
/tmp/big-roi:     file format elf64-x86-64


Disassembly of section .init:

0000000000001000 <_init>:
    1000:	f3 0f 1e fa          	endbr64 
    1004:	48 83 ec 08          	sub    rsp,0x8
    1008:	48 8b 05 d9 2f 00 00 	mov    rax,QWORD PTR [rip+0x2fd9]        # 3fe8 <__gmon_start__>
    100f:	48 85 c0             	test   rax,rax
    1012:	74 02                	je     1016 <_init+0x16>
    1014:	ff d0                	call   rax
    1016:	48 83 c4 08          	add    rsp,0x8
    101a:	c3                   	ret    

Disassembly of section .plt:

0000000000001020 <.plt>:
    1020:	ff 35 ba 2e 00 00    	push   QWORD PTR [rip+0x2eba]        # 3ee0 <_GLOBAL_OFFSET_TABLE_+0x8>
    1026:	f2 ff 25 bb 2e 00 00 	bnd jmp QWORD PTR [rip+0x2ebb]        # 3ee8 <_GLOBAL_OFFSET_TABLE_+0x10>
    102d:	0f 1f 00             	nop    DWORD PTR [rax]
    1030:	f3 0f 1e fa          	endbr64 
    1034:	68 00 00 00 00       	push   0x0
    1039:	f2 e9 e1 ff ff ff    	bnd jmp 1020 <.plt>
    103f:	90                   	nop
    1040:	f3 0f 1e fa          	endbr64 
    1044:	68 01 00 00 00       	push   0x1
    1049:	f2 e9 d1 ff ff ff    	bnd jmp 1020 <.plt>
    104f:	90                   	nop
    1050:	f3 0f 1e fa          	endbr64 
    1054:	68 02 00 00 00       	push   0x2
    1059:	f2 e9 c1 ff ff ff    	bnd jmp 1020 <.plt>
    105f:	90                   	nop
    1060:	f3 0f 1e fa          	endbr64 
    1064:	68 03 00 00 00       	push   0x3
    1069:	f2 e9 b1 ff ff ff    	bnd jmp 1020 <.plt>
    106f:	90                   	nop
    1070:	f3 0f 1e fa          	endbr64 
    1074:	68 04 00 00 00       	push   0x4
    1079:	f2 e9 a1 ff ff ff    	bnd jmp 1020 <.plt>
    107f:	90                   	nop
    1080:	f3 0f 1e fa          	endbr64 
    1084:	68 05 00 00 00       	push   0x5
    1089:	f2 e9 91 ff ff ff    	bnd jmp 1020 <.plt>
    108f:	90                   	nop
    1090:	f3 0f 1e fa          	endbr64 
    1094:	68 06 00 00 00       	push   0x6
    1099:	f2 e9 81 ff ff ff    	bnd jmp 1020 <.plt>
    109f:	90                   	nop
    10a0:	f3 0f 1e fa          	endbr64 
    10a4:	68 07 00 00 00       	push   0x7
    10a9:	f2 e9 71 ff ff ff    	bnd jmp 1020 <.plt>
    10af:	90                   	nop
    10b0:	f3 0f 1e fa          	endbr64 
    10b4:	68 08 00 00 00       	push   0x8
    10b9:	f2 e9 61 ff ff ff    	bnd jmp 1020 <.plt>
    10bf:	90                   	nop
    10c0:	f3 0f 1e fa          	endbr64 
    10c4:	68 09 00 00 00       	push   0x9
    10c9:	f2 e9 51 ff ff ff    	bnd jmp 1020 <.plt>
    10cf:	90                   	nop
    10d0:	f3 0f 1e fa          	endbr64 
    10d4:	68 0a 00 00 00       	push   0xa
    10d9:	f2 e9 41 ff ff ff    	bnd jmp 1020 <.plt>
    10df:	90                   	nop
    10e0:	f3 0f 1e fa          	endbr64 
    10e4:	68 0b 00 00 00       	push   0xb
    10e9:	f2 e9 31 ff ff ff    	bnd jmp 1020 <.plt>
    10ef:	90                   	nop
    10f0:	f3 0f 1e fa          	endbr64 
    10f4:	68 0c 00 00 00       	push   0xc
    10f9:	f2 e9 21 ff ff ff    	bnd jmp 1020 <.plt>
    10ff:	90                   	nop
    1100:	f3 0f 1e fa          	endbr64 
    1104:	68 0d 00 00 00       	push   0xd
    1109:	f2 e9 11 ff ff ff    	bnd jmp 1020 <.plt>
    110f:	90                   	nop
    1110:	f3 0f 1e fa          	endbr64 
    1114:	68 0e 00 00 00       	push   0xe
    1119:	f2 e9 01 ff ff ff    	bnd jmp 1020 <.plt>
    111f:	90                   	nop
    1120:	f3 0f 1e fa          	endbr64 
    1124:	68 0f 00 00 00       	push   0xf
    1129:	f2 e9 f1 fe ff ff    	bnd jmp 1020 <.plt>
    112f:	90                   	nop
    1130:	f3 0f 1e fa          	endbr64 
    1134:	68 10 00 00 00       	push   0x10
    1139:	f2 e9 e1 fe ff ff    	bnd jmp 1020 <.plt>
    113f:	90                   	nop
    1140:	f3 0f 1e fa          	endbr64 
    1144:	68 11 00 00 00       	push   0x11
    1149:	f2 e9 d1 fe ff ff    	bnd jmp 1020 <.plt>
    114f:	90                   	nop
    1150:	f3 0f 1e fa          	endbr64 
    1154:	68 12 00 00 00       	push   0x12
    1159:	f2 e9 c1 fe ff ff    	bnd jmp 1020 <.plt>
    115f:	90                   	nop
    1160:	f3 0f 1e fa          	endbr64 
    1164:	68 13 00 00 00       	push   0x13
    1169:	f2 e9 b1 fe ff ff    	bnd jmp 1020 <.plt>
    116f:	90                   	nop
    1170:	f3 0f 1e fa          	endbr64 
    1174:	68 14 00 00 00       	push   0x14
    1179:	f2 e9 a1 fe ff ff    	bnd jmp 1020 <.plt>
    117f:	90                   	nop
    1180:	f3 0f 1e fa          	endbr64 
    1184:	68 15 00 00 00       	push   0x15
    1189:	f2 e9 91 fe ff ff    	bnd jmp 1020 <.plt>
    118f:	90                   	nop
    1190:	f3 0f 1e fa          	endbr64 
    1194:	68 16 00 00 00       	push   0x16
    1199:	f2 e9 81 fe ff ff    	bnd jmp 1020 <.plt>
    119f:	90                   	nop
    11a0:	f3 0f 1e fa          	endbr64 
    11a4:	68 17 00 00 00       	push   0x17
    11a9:	f2 e9 71 fe ff ff    	bnd jmp 1020 <.plt>
    11af:	90                   	nop
    11b0:	f3 0f 1e fa          	endbr64 
    11b4:	68 18 00 00 00       	push   0x18
    11b9:	f2 e9 61 fe ff ff    	bnd jmp 1020 <.plt>
    11bf:	90                   	nop
    11c0:	f3 0f 1e fa          	endbr64 
    11c4:	68 19 00 00 00       	push   0x19
    11c9:	f2 e9 51 fe ff ff    	bnd jmp 1020 <.plt>
    11cf:	90                   	nop
    11d0:	f3 0f 1e fa          	endbr64 
    11d4:	68 1a 00 00 00       	push   0x1a
    11d9:	f2 e9 41 fe ff ff    	bnd jmp 1020 <.plt>
    11df:	90                   	nop
    11e0:	f3 0f 1e fa          	endbr64 
    11e4:	68 1b 00 00 00       	push   0x1b
    11e9:	f2 e9 31 fe ff ff    	bnd jmp 1020 <.plt>
    11ef:	90                   	nop
    11f0:	f3 0f 1e fa          	endbr64 
    11f4:	68 1c 00 00 00       	push   0x1c
    11f9:	f2 e9 21 fe ff ff    	bnd jmp 1020 <.plt>
    11ff:	90                   	nop

Disassembly of section .plt.got:

0000000000001200 <__cxa_finalize@plt>:
    1200:	f3 0f 1e fa          	endbr64 
    1204:	f2 ff 25 ed 2d 00 00 	bnd jmp QWORD PTR [rip+0x2ded]        # 3ff8 <__cxa_finalize@GLIBC_2.2.5>
    120b:	0f 1f 44 00 00       	nop    DWORD PTR [rax+rax*1+0x0]

Disassembly of section .plt.sec:

0000000000001210 <getenv@plt>:
    1210:	f3 0f 1e fa          	endbr64 
    1214:	f2 ff 25 d5 2c 00 00 	bnd jmp QWORD PTR [rip+0x2cd5]        # 3ef0 <getenv@GLIBC_2.2.5>
    121b:	0f 1f 44 00 00       	nop    DWORD PTR [rax+rax*1+0x0]

0000000000001220 <puts@plt>:
    1220:	f3 0f 1e fa          	endbr64 
    1224:	f2 ff 25 cd 2c 00 00 	bnd jmp QWORD PTR [rip+0x2ccd]        # 3ef8 <puts@GLIBC_2.2.5>
    122b:	0f 1f 44 00 00       	nop    DWORD PTR [rax+rax*1+0x0]

0000000000001230 <setsockopt@plt>:
    1230:	f3 0f 1e fa          	endbr64 
    1234:	f2 ff 25 c5 2c 00 00 	bnd jmp QWORD PTR [rip+0x2cc5]        # 3f00 <setsockopt@GLIBC_2.2.5>
    123b:	0f 1f 44 00 00       	nop    DWORD PTR [rax+rax*1+0x0]

0000000000001240 <inet_ntoa@plt>:
    1240:	f3 0f 1e fa          	endbr64 
    1244:	f2 ff 25 bd 2c 00 00 	bnd jmp QWORD PTR [rip+0x2cbd]        # 3f08 <inet_ntoa@GLIBC_2.2.5>
    124b:	0f 1f 44 00 00       	nop    DWORD PTR [rax+rax*1+0x0]

0000000000001250 <fclose@plt>:
    1250:	f3 0f 1e fa          	endbr64 
    1254:	f2 ff 25 b5 2c 00 00 	bnd jmp QWORD PTR [rip+0x2cb5]        # 3f10 <fclose@GLIBC_2.2.5>
    125b:	0f 1f 44 00 00       	nop    DWORD PTR [rax+rax*1+0x0]

0000000000001260 <strlen@plt>:
    1260:	f3 0f 1e fa          	endbr64 
    1264:	f2 ff 25 ad 2c 00 00 	bnd jmp QWORD PTR [rip+0x2cad]        # 3f18 <strlen@GLIBC_2.2.5>
    126b:	0f 1f 44 00 00       	nop    DWORD PTR [rax+rax*1+0x0]

0000000000001270 <__stack_chk_fail@plt>:
    1270:	f3 0f 1e fa          	endbr64 
    1274:	f2 ff 25 a5 2c 00 00 	bnd jmp QWORD PTR [rip+0x2ca5]        # 3f20 <__stack_chk_fail@GLIBC_2.4>
    127b:	0f 1f 44 00 00       	nop    DWORD PTR [rax+rax*1+0x0]

0000000000001280 <htons@plt>:
    1280:	f3 0f 1e fa          	endbr64 
    1284:	f2 ff 25 9d 2c 00 00 	bnd jmp QWORD PTR [rip+0x2c9d]        # 3f28 <htons@GLIBC_2.2.5>
    128b:	0f 1f 44 00 00       	nop    DWORD PTR [rax+rax*1+0x0]

0000000000001290 <printf@plt>:
    1290:	f3 0f 1e fa          	endbr64 
    1294:	f2 ff 25 95 2c 00 00 	bnd jmp QWORD PTR [rip+0x2c95]        # 3f30 <printf@GLIBC_2.2.5>
    129b:	0f 1f 44 00 00       	nop    DWORD PTR [rax+rax*1+0x0]

00000000000012a0 <close@plt>:
    12a0:	f3 0f 1e fa          	endbr64 
    12a4:	f2 ff 25 8d 2c 00 00 	bnd jmp QWORD PTR [rip+0x2c8d]        # 3f38 <close@GLIBC_2.2.5>
    12ab:	0f 1f 44 00 00       	nop    DWORD PTR [rax+rax*1+0x0]

00000000000012b0 <read@plt>:
    12b0:	f3 0f 1e fa          	endbr64 
    12b4:	f2 ff 25 85 2c 00 00 	bnd jmp QWORD PTR [rip+0x2c85]        # 3f40 <read@GLIBC_2.2.5>
    12bb:	0f 1f 44 00 00       	nop    DWORD PTR [rax+rax*1+0x0]

00000000000012c0 <inet_addr@plt>:
    12c0:	f3 0f 1e fa          	endbr64 
    12c4:	f2 ff 25 7d 2c 00 00 	bnd jmp QWORD PTR [rip+0x2c7d]        # 3f48 <inet_addr@GLIBC_2.2.5>
    12cb:	0f 1f 44 00 00       	nop    DWORD PTR [rax+rax*1+0x0]

00000000000012d0 <strcmp@plt>:
    12d0:	f3 0f 1e fa          	endbr64 
    12d4:	f2 ff 25 75 2c 00 00 	bnd jmp QWORD PTR [rip+0x2c75]        # 3f50 <strcmp@GLIBC_2.2.5>
    12db:	0f 1f 44 00 00       	nop    DWORD PTR [rax+rax*1+0x0]

00000000000012e0 <fprintf@plt>:
    12e0:	f3 0f 1e fa          	endbr64 
    12e4:	f2 ff 25 6d 2c 00 00 	bnd jmp QWORD PTR [rip+0x2c6d]        # 3f58 <fprintf@GLIBC_2.2.5>
    12eb:	0f 1f 44 00 00       	nop    DWORD PTR [rax+rax*1+0x0]

00000000000012f0 <fileno@plt>:
    12f0:	f3 0f 1e fa          	endbr64 
    12f4:	f2 ff 25 65 2c 00 00 	bnd jmp QWORD PTR [rip+0x2c65]        # 3f60 <fileno@GLIBC_2.2.5>
    12fb:	0f 1f 44 00 00       	nop    DWORD PTR [rax+rax*1+0x0]

0000000000001300 <__fxstat@plt>:
    1300:	f3 0f 1e fa          	endbr64 
    1304:	f2 ff 25 5d 2c 00 00 	bnd jmp QWORD PTR [rip+0x2c5d]        # 3f68 <__fxstat@GLIBC_2.2.5>
    130b:	0f 1f 44 00 00       	nop    DWORD PTR [rax+rax*1+0x0]

0000000000001310 <listen@plt>:
    1310:	f3 0f 1e fa          	endbr64 
    1314:	f2 ff 25 55 2c 00 00 	bnd jmp QWORD PTR [rip+0x2c55]        # 3f70 <listen@GLIBC_2.2.5>
    131b:	0f 1f 44 00 00       	nop    DWORD PTR [rax+rax*1+0x0]

0000000000001320 <sendfile@plt>:
    1320:	f3 0f 1e fa          	endbr64 
    1324:	f2 ff 25 4d 2c 00 00 	bnd jmp QWORD PTR [rip+0x2c4d]        # 3f78 <sendfile@GLIBC_2.2.5>
    132b:	0f 1f 44 00 00       	nop    DWORD PTR [rax+rax*1+0x0]

0000000000001330 <fdopen@plt>:
    1330:	f3 0f 1e fa          	endbr64 
    1334:	f2 ff 25 45 2c 00 00 	bnd jmp QWORD PTR [rip+0x2c45]        # 3f80 <fdopen@GLIBC_2.2.5>
    133b:	0f 1f 44 00 00       	nop    DWORD PTR [rax+rax*1+0x0]

0000000000001340 <bind@plt>:
    1340:	f3 0f 1e fa          	endbr64 
    1344:	f2 ff 25 3d 2c 00 00 	bnd jmp QWORD PTR [rip+0x2c3d]        # 3f88 <bind@GLIBC_2.2.5>
    134b:	0f 1f 44 00 00       	nop    DWORD PTR [rax+rax*1+0x0]

0000000000001350 <open@plt>:
    1350:	f3 0f 1e fa          	endbr64 
    1354:	f2 ff 25 35 2c 00 00 	bnd jmp QWORD PTR [rip+0x2c35]        # 3f90 <open@GLIBC_2.2.5>
    135b:	0f 1f 44 00 00       	nop    DWORD PTR [rax+rax*1+0x0]

0000000000001360 <perror@plt>:
    1360:	f3 0f 1e fa          	endbr64 
    1364:	f2 ff 25 2d 2c 00 00 	bnd jmp QWORD PTR [rip+0x2c2d]        # 3f98 <perror@GLIBC_2.2.5>
    136b:	0f 1f 44 00 00       	nop    DWORD PTR [rax+rax*1+0x0]

0000000000001370 <accept@plt>:
    1370:	f3 0f 1e fa          	endbr64 
    1374:	f2 ff 25 25 2c 00 00 	bnd jmp QWORD PTR [rip+0x2c25]        # 3fa0 <accept@GLIBC_2.2.5>
    137b:	0f 1f 44 00 00       	nop    DWORD PTR [rax+rax*1+0x0]

0000000000001380 <atoi@plt>:
    1380:	f3 0f 1e fa          	endbr64 
    1384:	f2 ff 25 1d 2c 00 00 	bnd jmp QWORD PTR [rip+0x2c1d]        # 3fa8 <atoi@GLIBC_2.2.5>
    138b:	0f 1f 44 00 00       	nop    DWORD PTR [rax+rax*1+0x0]

0000000000001390 <gethostbyaddr@plt>:
    1390:	f3 0f 1e fa          	endbr64 
    1394:	f2 ff 25 15 2c 00 00 	bnd jmp QWORD PTR [rip+0x2c15]        # 3fb0 <gethostbyaddr@GLIBC_2.2.5>
    139b:	0f 1f 44 00 00       	nop    DWORD PTR [rax+rax*1+0x0]

00000000000013a0 <exit@plt>:
    13a0:	f3 0f 1e fa          	endbr64 
    13a4:	f2 ff 25 0d 2c 00 00 	bnd jmp QWORD PTR [rip+0x2c0d]        # 3fb8 <exit@GLIBC_2.2.5>
    13ab:	0f 1f 44 00 00       	nop    DWORD PTR [rax+rax*1+0x0]

00000000000013b0 <fwrite@plt>:
    13b0:	f3 0f 1e fa          	endbr64 
    13b4:	f2 ff 25 05 2c 00 00 	bnd jmp QWORD PTR [rip+0x2c05]        # 3fc0 <fwrite@GLIBC_2.2.5>
    13bb:	0f 1f 44 00 00       	nop    DWORD PTR [rax+rax*1+0x0]

00000000000013c0 <crypt@plt>:
    13c0:	f3 0f 1e fa          	endbr64 
    13c4:	f2 ff 25 fd 2b 00 00 	bnd jmp QWORD PTR [rip+0x2bfd]        # 3fc8 <crypt@XCRYPT_2.0>
    13cb:	0f 1f 44 00 00       	nop    DWORD PTR [rax+rax*1+0x0]

00000000000013d0 <socket@plt>:
    13d0:	f3 0f 1e fa          	endbr64 
    13d4:	f2 ff 25 f5 2b 00 00 	bnd jmp QWORD PTR [rip+0x2bf5]        # 3fd0 <socket@GLIBC_2.2.5>
    13db:	0f 1f 44 00 00       	nop    DWORD PTR [rax+rax*1+0x0]

Disassembly of section .text:

00000000000013e0 <_start>:
    13e0:	f3 0f 1e fa          	endbr64 
    13e4:	31 ed                	xor    ebp,ebp
    13e6:	49 89 d1             	mov    r9,rdx
    13e9:	5e                   	pop    rsi
    13ea:	48 89 e2             	mov    rdx,rsp
    13ed:	48 83 e4 f0          	and    rsp,0xfffffffffffffff0
    13f1:	50                   	push   rax
    13f2:	54                   	push   rsp
    13f3:	4c 8d 05 46 06 00 00 	lea    r8,[rip+0x646]        # 1a40 <__libc_csu_fini>
    13fa:	48 8d 0d cf 05 00 00 	lea    rcx,[rip+0x5cf]        # 19d0 <__libc_csu_init>
    1401:	48 8d 3d 89 03 00 00 	lea    rdi,[rip+0x389]        # 1791 <main>
    1408:	ff 15 d2 2b 00 00    	call   QWORD PTR [rip+0x2bd2]        # 3fe0 <__libc_start_main@GLIBC_2.2.5>
    140e:	f4                   	hlt    
    140f:	90                   	nop

0000000000001410 <deregister_tm_clones>:
    1410:	48 8d 3d f9 2b 00 00 	lea    rdi,[rip+0x2bf9]        # 4010 <__TMC_END__>
    1417:	48 8d 05 f2 2b 00 00 	lea    rax,[rip+0x2bf2]        # 4010 <__TMC_END__>
    141e:	48 39 f8             	cmp    rax,rdi
    1421:	74 15                	je     1438 <deregister_tm_clones+0x28>
    1423:	48 8b 05 ae 2b 00 00 	mov    rax,QWORD PTR [rip+0x2bae]        # 3fd8 <_ITM_deregisterTMCloneTable>
    142a:	48 85 c0             	test   rax,rax
    142d:	74 09                	je     1438 <deregister_tm_clones+0x28>
    142f:	ff e0                	jmp    rax
    1431:	0f 1f 80 00 00 00 00 	nop    DWORD PTR [rax+0x0]
    1438:	c3                   	ret    
    1439:	0f 1f 80 00 00 00 00 	nop    DWORD PTR [rax+0x0]

0000000000001440 <register_tm_clones>:
    1440:	48 8d 3d c9 2b 00 00 	lea    rdi,[rip+0x2bc9]        # 4010 <__TMC_END__>
    1447:	48 8d 35 c2 2b 00 00 	lea    rsi,[rip+0x2bc2]        # 4010 <__TMC_END__>
    144e:	48 29 fe             	sub    rsi,rdi
    1451:	48 89 f0             	mov    rax,rsi
    1454:	48 c1 ee 3f          	shr    rsi,0x3f
    1458:	48 c1 f8 03          	sar    rax,0x3
    145c:	48 01 c6             	add    rsi,rax
    145f:	48 d1 fe             	sar    rsi,1
    1462:	74 14                	je     1478 <register_tm_clones+0x38>
    1464:	48 8b 05 85 2b 00 00 	mov    rax,QWORD PTR [rip+0x2b85]        # 3ff0 <_ITM_registerTMCloneTable>
    146b:	48 85 c0             	test   rax,rax
    146e:	74 08                	je     1478 <register_tm_clones+0x38>
    1470:	ff e0                	jmp    rax
    1472:	66 0f 1f 44 00 00    	nop    WORD PTR [rax+rax*1+0x0]
    1478:	c3                   	ret    
    1479:	0f 1f 80 00 00 00 00 	nop    DWORD PTR [rax+0x0]

0000000000001480 <__do_global_dtors_aux>:
    1480:	f3 0f 1e fa          	endbr64 
    1484:	80 3d 9d 2b 00 00 00 	cmp    BYTE PTR [rip+0x2b9d],0x0        # 4028 <completed.8060>
    148b:	75 2b                	jne    14b8 <__do_global_dtors_aux+0x38>
    148d:	55                   	push   rbp
    148e:	48 83 3d 62 2b 00 00 	cmp    QWORD PTR [rip+0x2b62],0x0        # 3ff8 <__cxa_finalize@GLIBC_2.2.5>
    1495:	00 
    1496:	48 89 e5             	mov    rbp,rsp
    1499:	74 0c                	je     14a7 <__do_global_dtors_aux+0x27>
    149b:	48 8b 3d 66 2b 00 00 	mov    rdi,QWORD PTR [rip+0x2b66]        # 4008 <__dso_handle>
    14a2:	e8 59 fd ff ff       	call   1200 <__cxa_finalize@plt>
    14a7:	e8 64 ff ff ff       	call   1410 <deregister_tm_clones>
    14ac:	c6 05 75 2b 00 00 01 	mov    BYTE PTR [rip+0x2b75],0x1        # 4028 <completed.8060>
    14b3:	5d                   	pop    rbp
    14b4:	c3                   	ret    
    14b5:	0f 1f 00             	nop    DWORD PTR [rax]
    14b8:	c3                   	ret    
    14b9:	0f 1f 80 00 00 00 00 	nop    DWORD PTR [rax+0x0]

00000000000014c0 <frame_dummy>:
    14c0:	f3 0f 1e fa          	endbr64 
    14c4:	e9 77 ff ff ff       	jmp    1440 <register_tm_clones>

00000000000014c9 <handleClient>:
    14c9:	f3 0f 1e fa          	endbr64 
    14cd:	55                   	push   rbp
    14ce:	48 89 e5             	mov    rbp,rsp
    14d1:	53                   	push   rbx
    14d2:	48 81 ec 28 01 00 00 	sub    rsp,0x128
    14d9:	89 bd dc fe ff ff    	mov    DWORD PTR [rbp-0x124],edi
    14df:	48 89 b5 d0 fe ff ff 	mov    QWORD PTR [rbp-0x130],rsi
    14e6:	64 48 8b 04 25 28 00 	mov    rax,QWORD PTR fs:0x28
    14ed:	00 00 
    14ef:	48 89 45 e8          	mov    QWORD PTR [rbp-0x18],rax
    14f3:	31 c0                	xor    eax,eax
    14f5:	8b 85 dc fe ff ff    	mov    eax,DWORD PTR [rbp-0x124]
    14fb:	48 8d 35 06 0b 00 00 	lea    rsi,[rip+0xb06]        # 2008 <_IO_stdin_used+0x8>
    1502:	89 c7                	mov    edi,eax
    1504:	e8 27 fe ff ff       	call   1330 <fdopen@plt>
    1509:	48 89 85 e8 fe ff ff 	mov    QWORD PTR [rbp-0x118],rax
    1510:	48 83 bd e8 fe ff ff 	cmp    QWORD PTR [rbp-0x118],0x0
    1517:	00 
    1518:	75 11                	jne    152b <handleClient+0x62>
    151a:	48 8d 3d eb 0a 00 00 	lea    rdi,[rip+0xaeb]        # 200c <_IO_stdin_used+0xc>
    1521:	e8 fa fc ff ff       	call   1220 <puts@plt>
    1526:	e9 c5 01 00 00       	jmp    16f0 <handleClient+0x227>
    152b:	48 8d 45 80          	lea    rax,[rbp-0x80]
    152f:	48 89 c2             	mov    rdx,rax
    1532:	b8 00 00 00 00       	mov    eax,0x0
    1537:	b9 0c 00 00 00       	mov    ecx,0xc
    153c:	48 89 d7             	mov    rdi,rdx
    153f:	f3 48 ab             	rep stos QWORD PTR es:[rdi],rax
    1542:	48 89 fa             	mov    rdx,rdi
    1545:	89 02                	mov    DWORD PTR [rdx],eax
    1547:	48 83 c2 04          	add    rdx,0x4
    154b:	66 89 02             	mov    WORD PTR [rdx],ax
    154e:	48 83 c2 02          	add    rdx,0x2
    1552:	48 8b 85 e8 fe ff ff 	mov    rax,QWORD PTR [rbp-0x118]
    1559:	48 89 c7             	mov    rdi,rax
    155c:	e8 8f fd ff ff       	call   12f0 <fileno@plt>
    1561:	89 c1                	mov    ecx,eax
    1563:	48 8d 45 80          	lea    rax,[rbp-0x80]
    1567:	ba 00 04 00 00       	mov    edx,0x400
    156c:	48 89 c6             	mov    rsi,rax
    156f:	89 cf                	mov    edi,ecx
    1571:	e8 3a fd ff ff       	call   12b0 <read@plt>
    1576:	48 85 c0             	test   rax,rax
    1579:	79 11                	jns    158c <handleClient+0xc3>
    157b:	48 8d 3d a5 0a 00 00 	lea    rdi,[rip+0xaa5]        # 2027 <_IO_stdin_used+0x27>
    1582:	e8 99 fc ff ff       	call   1220 <puts@plt>
    1587:	e9 64 01 00 00       	jmp    16f0 <handleClient+0x227>
    158c:	48 8d 3d af 0a 00 00 	lea    rdi,[rip+0xaaf]        # 2042 <_IO_stdin_used+0x42>
    1593:	e8 78 fc ff ff       	call   1210 <getenv@plt>
    1598:	48 85 c0             	test   rax,rax
    159b:	0f 84 97 00 00 00    	je     1638 <handleClient+0x16f>
    15a1:	48 8d 3d 9a 0a 00 00 	lea    rdi,[rip+0xa9a]        # 2042 <_IO_stdin_used+0x42>
    15a8:	e8 63 fc ff ff       	call   1210 <getenv@plt>
    15ad:	48 89 c3             	mov    rbx,rax
    15b0:	48 8d 3d 8b 0a 00 00 	lea    rdi,[rip+0xa8b]        # 2042 <_IO_stdin_used+0x42>
    15b7:	e8 54 fc ff ff       	call   1210 <getenv@plt>
    15bc:	48 89 c2             	mov    rdx,rax
    15bf:	48 8d 45 80          	lea    rax,[rbp-0x80]
    15c3:	48 89 d6             	mov    rsi,rdx
    15c6:	48 89 c7             	mov    rdi,rax
    15c9:	e8 f2 fd ff ff       	call   13c0 <crypt@plt>
    15ce:	48 89 de             	mov    rsi,rbx
    15d1:	48 89 c7             	mov    rdi,rax
    15d4:	e8 f7 fc ff ff       	call   12d0 <strcmp@plt>
    15d9:	85 c0                	test   eax,eax
    15db:	74 4f                	je     162c <handleClient+0x163>
    15dd:	48 8b 85 e8 fe ff ff 	mov    rax,QWORD PTR [rbp-0x118]
    15e4:	48 89 c1             	mov    rcx,rax
    15e7:	ba 14 00 00 00       	mov    edx,0x14
    15ec:	be 01 00 00 00       	mov    esi,0x1
    15f1:	48 8d 3d 5a 0a 00 00 	lea    rdi,[rip+0xa5a]        # 2052 <_IO_stdin_used+0x52>
    15f8:	e8 b3 fd ff ff       	call   13b0 <fwrite@plt>
    15fd:	48 8d 45 80          	lea    rax,[rbp-0x80]
    1601:	48 89 c7             	mov    rdi,rax
    1604:	e8 57 fc ff ff       	call   1260 <strlen@plt>
    1609:	48 89 c2             	mov    rdx,rax
    160c:	48 8d 4d 80          	lea    rcx,[rbp-0x80]
    1610:	48 8b 85 e8 fe ff ff 	mov    rax,QWORD PTR [rbp-0x118]
    1617:	48 89 ce             	mov    rsi,rcx
    161a:	48 89 c7             	mov    rdi,rax
    161d:	b8 00 00 00 00       	mov    eax,0x0
    1622:	e8 b9 fc ff ff       	call   12e0 <fprintf@plt>
    1627:	e9 c4 00 00 00       	jmp    16f0 <handleClient+0x227>
    162c:	48 8d 3d 34 0a 00 00 	lea    rdi,[rip+0xa34]        # 2067 <_IO_stdin_used+0x67>
    1633:	e8 e8 fb ff ff       	call   1220 <puts@plt>
    1638:	48 8b 85 d0 fe ff ff 	mov    rax,QWORD PTR [rbp-0x130]
    163f:	be 00 00 00 00       	mov    esi,0x0
    1644:	48 89 c7             	mov    rdi,rax
    1647:	b8 00 00 00 00       	mov    eax,0x0
    164c:	e8 ff fc ff ff       	call   1350 <open@plt>
    1651:	89 85 e4 fe ff ff    	mov    DWORD PTR [rbp-0x11c],eax
    1657:	83 bd e4 fe ff ff ff 	cmp    DWORD PTR [rbp-0x11c],0xffffffff
    165e:	75 1d                	jne    167d <handleClient+0x1b4>
    1660:	48 8b 85 d0 fe ff ff 	mov    rax,QWORD PTR [rbp-0x130]
    1667:	48 89 c6             	mov    rsi,rax
    166a:	48 8d 3d 04 0a 00 00 	lea    rdi,[rip+0xa04]        # 2075 <_IO_stdin_used+0x75>
    1671:	b8 00 00 00 00       	mov    eax,0x0
    1676:	e8 15 fc ff ff       	call   1290 <printf@plt>
    167b:	eb 73                	jmp    16f0 <handleClient+0x227>
    167d:	48 8d 95 f0 fe ff ff 	lea    rdx,[rbp-0x110]
    1684:	8b 85 e4 fe ff ff    	mov    eax,DWORD PTR [rbp-0x11c]
    168a:	48 89 d6             	mov    rsi,rdx
    168d:	89 c7                	mov    edi,eax
    168f:	e8 bc 03 00 00       	call   1a50 <__fstat>
    1694:	83 f8 ff             	cmp    eax,0xffffffff
    1697:	75 1d                	jne    16b6 <handleClient+0x1ed>
    1699:	48 8b 85 d0 fe ff ff 	mov    rax,QWORD PTR [rbp-0x130]
    16a0:	48 89 c6             	mov    rsi,rax
    16a3:	48 8d 3d e6 09 00 00 	lea    rdi,[rip+0x9e6]        # 2090 <_IO_stdin_used+0x90>
    16aa:	b8 00 00 00 00       	mov    eax,0x0
    16af:	e8 dc fb ff ff       	call   1290 <printf@plt>
    16b4:	eb 3a                	jmp    16f0 <handleClient+0x227>
    16b6:	48 8b 85 20 ff ff ff 	mov    rax,QWORD PTR [rbp-0xe0]
    16bd:	48 89 c2             	mov    rdx,rax
    16c0:	8b b5 e4 fe ff ff    	mov    esi,DWORD PTR [rbp-0x11c]
    16c6:	8b 85 dc fe ff ff    	mov    eax,DWORD PTR [rbp-0x124]
    16cc:	48 89 d1             	mov    rcx,rdx
    16cf:	ba 00 00 00 00       	mov    edx,0x0
    16d4:	89 c7                	mov    edi,eax
    16d6:	e8 45 fc ff ff       	call   1320 <sendfile@plt>
    16db:	48 83 f8 ff          	cmp    rax,0xffffffffffffffff
    16df:	75 0e                	jne    16ef <handleClient+0x226>
    16e1:	48 8d 3d c4 09 00 00 	lea    rdi,[rip+0x9c4]        # 20ac <_IO_stdin_used+0xac>
    16e8:	e8 33 fb ff ff       	call   1220 <puts@plt>
    16ed:	eb 01                	jmp    16f0 <handleClient+0x227>
    16ef:	90                   	nop
    16f0:	8b 85 e4 fe ff ff    	mov    eax,DWORD PTR [rbp-0x11c]
    16f6:	89 c7                	mov    edi,eax
    16f8:	e8 a3 fb ff ff       	call   12a0 <close@plt>
    16fd:	48 8b 85 e8 fe ff ff 	mov    rax,QWORD PTR [rbp-0x118]
    1704:	48 89 c7             	mov    rdi,rax
    1707:	e8 44 fb ff ff       	call   1250 <fclose@plt>
    170c:	8b 85 dc fe ff ff    	mov    eax,DWORD PTR [rbp-0x124]
    1712:	89 c7                	mov    edi,eax
    1714:	e8 87 fb ff ff       	call   12a0 <close@plt>
    1719:	90                   	nop
    171a:	48 8b 45 e8          	mov    rax,QWORD PTR [rbp-0x18]
    171e:	64 48 33 04 25 28 00 	xor    rax,QWORD PTR fs:0x28
    1725:	00 00 
    1727:	74 05                	je     172e <handleClient+0x265>
    1729:	e8 42 fb ff ff       	call   1270 <__stack_chk_fail@plt>
    172e:	48 81 c4 28 01 00 00 	add    rsp,0x128
    1735:	5b                   	pop    rbx
    1736:	5d                   	pop    rbp
    1737:	c3                   	ret    

0000000000001738 <notifyNewClient>:
    1738:	f3 0f 1e fa          	endbr64 
    173c:	55                   	push   rbp
    173d:	48 89 e5             	mov    rbp,rsp
    1740:	48 83 ec 10          	sub    rsp,0x10
    1744:	89 7d fc             	mov    DWORD PTR [rbp-0x4],edi
    1747:	48 89 75 f0          	mov    QWORD PTR [rbp-0x10],rsi
    174b:	48 8d 3d 6d 09 00 00 	lea    rdi,[rip+0x96d]        # 20bf <_IO_stdin_used+0xbf>
    1752:	e8 c9 fa ff ff       	call   1220 <puts@plt>
    1757:	48 8b 55 f0          	mov    rdx,QWORD PTR [rbp-0x10]
    175b:	8b 45 fc             	mov    eax,DWORD PTR [rbp-0x4]
    175e:	48 89 d6             	mov    rsi,rdx
    1761:	89 c7                	mov    edi,eax
    1763:	e8 61 fd ff ff       	call   14c9 <handleClient>
    1768:	90                   	nop
    1769:	c9                   	leave  
    176a:	c3                   	ret    

000000000000176b <error>:
    176b:	f3 0f 1e fa          	endbr64 
    176f:	55                   	push   rbp
    1770:	48 89 e5             	mov    rbp,rsp
    1773:	48 83 ec 10          	sub    rsp,0x10
    1777:	48 89 7d f8          	mov    QWORD PTR [rbp-0x8],rdi
    177b:	48 8b 45 f8          	mov    rax,QWORD PTR [rbp-0x8]
    177f:	48 89 c7             	mov    rdi,rax
    1782:	e8 d9 fb ff ff       	call   1360 <perror@plt>
    1787:	bf 01 00 00 00       	mov    edi,0x1
    178c:	e8 0f fc ff ff       	call   13a0 <exit@plt>

0000000000001791 <main>:
    1791:	f3 0f 1e fa          	endbr64 
    1795:	55                   	push   rbp
    1796:	48 89 e5             	mov    rbp,rsp
    1799:	48 83 ec 70          	sub    rsp,0x70
    179d:	89 7d 9c             	mov    DWORD PTR [rbp-0x64],edi
    17a0:	48 89 75 90          	mov    QWORD PTR [rbp-0x70],rsi
    17a4:	64 48 8b 04 25 28 00 	mov    rax,QWORD PTR fs:0x28
    17ab:	00 00 
    17ad:	48 89 45 f8          	mov    QWORD PTR [rbp-0x8],rax
    17b1:	31 c0                	xor    eax,eax
    17b3:	83 7d 9c 03          	cmp    DWORD PTR [rbp-0x64],0x3
    17b7:	74 6e                	je     1827 <main+0x96>
    17b9:	48 8b 45 90          	mov    rax,QWORD PTR [rbp-0x70]
    17bd:	48 8b 10             	mov    rdx,QWORD PTR [rax]
    17c0:	48 8b 05 59 28 00 00 	mov    rax,QWORD PTR [rip+0x2859]        # 4020 <stderr@@GLIBC_2.2.5>
    17c7:	48 8d 35 02 09 00 00 	lea    rsi,[rip+0x902]        # 20d0 <_IO_stdin_used+0xd0>
    17ce:	48 89 c7             	mov    rdi,rax
    17d1:	b8 00 00 00 00       	mov    eax,0x0
    17d6:	e8 05 fb ff ff       	call   12e0 <fprintf@plt>
    17db:	48 8b 05 3e 28 00 00 	mov    rax,QWORD PTR [rip+0x283e]        # 4020 <stderr@@GLIBC_2.2.5>
    17e2:	48 8d 15 59 08 00 00 	lea    rdx,[rip+0x859]        # 2042 <_IO_stdin_used+0x42>
    17e9:	48 8d 35 08 09 00 00 	lea    rsi,[rip+0x908]        # 20f8 <_IO_stdin_used+0xf8>
    17f0:	48 89 c7             	mov    rdi,rax
    17f3:	b8 00 00 00 00       	mov    eax,0x0
    17f8:	e8 e3 fa ff ff       	call   12e0 <fprintf@plt>
    17fd:	48 8b 05 1c 28 00 00 	mov    rax,QWORD PTR [rip+0x281c]        # 4020 <stderr@@GLIBC_2.2.5>
    1804:	48 89 c1             	mov    rcx,rax
    1807:	ba 42 00 00 00       	mov    edx,0x42
    180c:	be 01 00 00 00       	mov    esi,0x1
    1811:	48 8d 3d 28 09 00 00 	lea    rdi,[rip+0x928]        # 2140 <_IO_stdin_used+0x140>
    1818:	e8 93 fb ff ff       	call   13b0 <fwrite@plt>
    181d:	bf 01 00 00 00       	mov    edi,0x1
    1822:	e8 79 fb ff ff       	call   13a0 <exit@plt>
    1827:	48 8b 45 90          	mov    rax,QWORD PTR [rbp-0x70]
    182b:	48 83 c0 08          	add    rax,0x8
    182f:	48 8b 00             	mov    rax,QWORD PTR [rax]
    1832:	48 89 c7             	mov    rdi,rax
    1835:	e8 46 fb ff ff       	call   1380 <atoi@plt>
    183a:	89 45 b4             	mov    DWORD PTR [rbp-0x4c],eax
    183d:	ba 00 00 00 00       	mov    edx,0x0
    1842:	be 01 00 00 00       	mov    esi,0x1
    1847:	bf 02 00 00 00       	mov    edi,0x2
    184c:	e8 7f fb ff ff       	call   13d0 <socket@plt>
    1851:	89 45 b8             	mov    DWORD PTR [rbp-0x48],eax
    1854:	83 7d b8 00          	cmp    DWORD PTR [rbp-0x48],0x0
    1858:	79 0c                	jns    1866 <main+0xd5>
    185a:	48 8d 3d 22 09 00 00 	lea    rdi,[rip+0x922]        # 2183 <_IO_stdin_used+0x183>
    1861:	e8 05 ff ff ff       	call   176b <error>
    1866:	c7 45 b0 01 00 00 00 	mov    DWORD PTR [rbp-0x50],0x1
    186d:	48 8d 55 b0          	lea    rdx,[rbp-0x50]
    1871:	8b 45 b8             	mov    eax,DWORD PTR [rbp-0x48]
    1874:	41 b8 04 00 00 00    	mov    r8d,0x4
    187a:	48 89 d1             	mov    rcx,rdx
    187d:	ba 02 00 00 00       	mov    edx,0x2
    1882:	be 01 00 00 00       	mov    esi,0x1
    1887:	89 c7                	mov    edi,eax
    1889:	e8 a2 f9 ff ff       	call   1230 <setsockopt@plt>
    188e:	48 8d 45 d0          	lea    rax,[rbp-0x30]
    1892:	48 c7 00 00 00 00 00 	mov    QWORD PTR [rax],0x0
    1899:	48 c7 40 08 00 00 00 	mov    QWORD PTR [rax+0x8],0x0
    18a0:	00 
    18a1:	66 c7 45 d0 02 00    	mov    WORD PTR [rbp-0x30],0x2
    18a7:	48 8d 3d ea 08 00 00 	lea    rdi,[rip+0x8ea]        # 2198 <_IO_stdin_used+0x198>
    18ae:	e8 0d fa ff ff       	call   12c0 <inet_addr@plt>
    18b3:	89 45 d4             	mov    DWORD PTR [rbp-0x2c],eax
    18b6:	8b 45 b4             	mov    eax,DWORD PTR [rbp-0x4c]
    18b9:	0f b7 c0             	movzx  eax,ax
    18bc:	89 c7                	mov    edi,eax
    18be:	e8 bd f9 ff ff       	call   1280 <htons@plt>
    18c3:	66 89 45 d2          	mov    WORD PTR [rbp-0x2e],ax
    18c7:	48 8d 4d d0          	lea    rcx,[rbp-0x30]
    18cb:	8b 45 b8             	mov    eax,DWORD PTR [rbp-0x48]
    18ce:	ba 10 00 00 00       	mov    edx,0x10
    18d3:	48 89 ce             	mov    rsi,rcx
    18d6:	89 c7                	mov    edi,eax
    18d8:	e8 63 fa ff ff       	call   1340 <bind@plt>
    18dd:	85 c0                	test   eax,eax
    18df:	79 0c                	jns    18ed <main+0x15c>
    18e1:	48 8d 3d ba 08 00 00 	lea    rdi,[rip+0x8ba]        # 21a2 <_IO_stdin_used+0x1a2>
    18e8:	e8 7e fe ff ff       	call   176b <error>
    18ed:	8b 45 b8             	mov    eax,DWORD PTR [rbp-0x48]
    18f0:	be 05 00 00 00       	mov    esi,0x5
    18f5:	89 c7                	mov    edi,eax
    18f7:	e8 14 fa ff ff       	call   1310 <listen@plt>
    18fc:	85 c0                	test   eax,eax
    18fe:	79 0c                	jns    190c <main+0x17b>
    1900:	48 8d 3d ac 08 00 00 	lea    rdi,[rip+0x8ac]        # 21b3 <_IO_stdin_used+0x1b3>
    1907:	e8 5f fe ff ff       	call   176b <error>
    190c:	c7 45 ac 10 00 00 00 	mov    DWORD PTR [rbp-0x54],0x10
    1913:	48 8d 55 ac          	lea    rdx,[rbp-0x54]
    1917:	48 8d 4d e0          	lea    rcx,[rbp-0x20]
    191b:	8b 45 b8             	mov    eax,DWORD PTR [rbp-0x48]
    191e:	48 89 ce             	mov    rsi,rcx
    1921:	89 c7                	mov    edi,eax
    1923:	e8 48 fa ff ff       	call   1370 <accept@plt>
    1928:	89 45 bc             	mov    DWORD PTR [rbp-0x44],eax
    192b:	83 7d bc 00          	cmp    DWORD PTR [rbp-0x44],0x0
    192f:	79 0c                	jns    193d <main+0x1ac>
    1931:	48 8d 3d 8b 08 00 00 	lea    rdi,[rip+0x88b]        # 21c3 <_IO_stdin_used+0x1c3>
    1938:	e8 2e fe ff ff       	call   176b <error>
    193d:	48 8d 45 e0          	lea    rax,[rbp-0x20]
    1941:	48 83 c0 04          	add    rax,0x4
    1945:	ba 02 00 00 00       	mov    edx,0x2
    194a:	be 04 00 00 00       	mov    esi,0x4
    194f:	48 89 c7             	mov    rdi,rax
    1952:	e8 39 fa ff ff       	call   1390 <gethostbyaddr@plt>
    1957:	48 89 45 c0          	mov    QWORD PTR [rbp-0x40],rax
    195b:	48 83 7d c0 00       	cmp    QWORD PTR [rbp-0x40],0x0
    1960:	75 0c                	jne    196e <main+0x1dd>
    1962:	48 8d 3d 6a 08 00 00 	lea    rdi,[rip+0x86a]        # 21d3 <_IO_stdin_used+0x1d3>
    1969:	e8 fd fd ff ff       	call   176b <error>
    196e:	8b 45 e4             	mov    eax,DWORD PTR [rbp-0x1c]
    1971:	89 c7                	mov    edi,eax
    1973:	e8 c8 f8 ff ff       	call   1240 <inet_ntoa@plt>
    1978:	48 89 45 c8          	mov    QWORD PTR [rbp-0x38],rax
    197c:	48 83 7d c8 00       	cmp    QWORD PTR [rbp-0x38],0x0
    1981:	75 0c                	jne    198f <main+0x1fe>
    1983:	48 8d 3d 60 08 00 00 	lea    rdi,[rip+0x860]        # 21ea <_IO_stdin_used+0x1ea>
    198a:	e8 dc fd ff ff       	call   176b <error>
    198f:	48 8b 45 c0          	mov    rax,QWORD PTR [rbp-0x40]
    1993:	48 8b 00             	mov    rax,QWORD PTR [rax]
    1996:	48 8b 55 c8          	mov    rdx,QWORD PTR [rbp-0x38]
    199a:	48 89 c6             	mov    rsi,rax
    199d:	48 8d 3d 5c 08 00 00 	lea    rdi,[rip+0x85c]        # 2200 <_IO_stdin_used+0x200>
    19a4:	b8 00 00 00 00       	mov    eax,0x0
    19a9:	e8 e2 f8 ff ff       	call   1290 <printf@plt>
    19ae:	48 8b 45 90          	mov    rax,QWORD PTR [rbp-0x70]
    19b2:	48 83 c0 10          	add    rax,0x10
    19b6:	48 8b 10             	mov    rdx,QWORD PTR [rax]
    19b9:	8b 45 bc             	mov    eax,DWORD PTR [rbp-0x44]
    19bc:	48 89 d6             	mov    rsi,rdx
    19bf:	89 c7                	mov    edi,eax
    19c1:	e8 72 fd ff ff       	call   1738 <notifyNewClient>
    19c6:	e9 48 ff ff ff       	jmp    1913 <main+0x182>
    19cb:	0f 1f 44 00 00       	nop    DWORD PTR [rax+rax*1+0x0]

00000000000019d0 <__libc_csu_init>:
    19d0:	f3 0f 1e fa          	endbr64 
    19d4:	41 57                	push   r15
    19d6:	4c 8d 3d eb 22 00 00 	lea    r15,[rip+0x22eb]        # 3cc8 <__frame_dummy_init_array_entry>
    19dd:	41 56                	push   r14
    19df:	49 89 d6             	mov    r14,rdx
    19e2:	41 55                	push   r13
    19e4:	49 89 f5             	mov    r13,rsi
    19e7:	41 54                	push   r12
    19e9:	41 89 fc             	mov    r12d,edi
    19ec:	55                   	push   rbp
    19ed:	48 8d 2d dc 22 00 00 	lea    rbp,[rip+0x22dc]        # 3cd0 <__do_global_dtors_aux_fini_array_entry>
    19f4:	53                   	push   rbx
    19f5:	4c 29 fd             	sub    rbp,r15
    19f8:	48 83 ec 08          	sub    rsp,0x8
    19fc:	e8 ff f5 ff ff       	call   1000 <_init>
    1a01:	48 c1 fd 03          	sar    rbp,0x3
    1a05:	74 1f                	je     1a26 <__libc_csu_init+0x56>
    1a07:	31 db                	xor    ebx,ebx
    1a09:	0f 1f 80 00 00 00 00 	nop    DWORD PTR [rax+0x0]
    1a10:	4c 89 f2             	mov    rdx,r14
    1a13:	4c 89 ee             	mov    rsi,r13
    1a16:	44 89 e7             	mov    edi,r12d
    1a19:	41 ff 14 df          	call   QWORD PTR [r15+rbx*8]
    1a1d:	48 83 c3 01          	add    rbx,0x1
    1a21:	48 39 dd             	cmp    rbp,rbx
    1a24:	75 ea                	jne    1a10 <__libc_csu_init+0x40>
    1a26:	48 83 c4 08          	add    rsp,0x8
    1a2a:	5b                   	pop    rbx
    1a2b:	5d                   	pop    rbp
    1a2c:	41 5c                	pop    r12
    1a2e:	41 5d                	pop    r13
    1a30:	41 5e                	pop    r14
    1a32:	41 5f                	pop    r15
    1a34:	c3                   	ret    
    1a35:	66 66 2e 0f 1f 84 00 	data16 nop WORD PTR cs:[rax+rax*1+0x0]
    1a3c:	00 00 00 00 

0000000000001a40 <__libc_csu_fini>:
    1a40:	f3 0f 1e fa          	endbr64 
    1a44:	c3                   	ret    
    1a45:	66 2e 0f 1f 84 00 00 	nop    WORD PTR cs:[rax+rax*1+0x0]
    1a4c:	00 00 00 
    1a4f:	90                   	nop

0000000000001a50 <__fstat>:
    1a50:	f3 0f 1e fa          	endbr64 
    1a54:	48 89 f2             	mov    rdx,rsi
    1a57:	89 fe                	mov    esi,edi
    1a59:	bf 01 00 00 00       	mov    edi,0x1
    1a5e:	e9 9d f8 ff ff       	jmp    1300 <__fxstat@plt>

Disassembly of section .fini:

0000000000001a64 <_fini>:
    1a64:	f3 0f 1e fa          	endbr64 
    1a68:	48 83 ec 08          	sub    rsp,0x8
    1a6c:	48 83 c4 08          	add    rsp,0x8
    1a70:	c3                   	ret    
